; Function Attrs: mustprogress uwtable
define void @_ZN3zmq23stream_connecter_base_t12process_termEi(ptr noundef nonnull align 8 dereferenceable(1544) %0, i32 noundef %1) unnamed_addr #0 align 2 {
  %3 = getelementptr inbounds nuw i8, ptr %0, i64 1529
  %4 = load i8, ptr %3, align 1, !tbaa !74, !range !81, !noundef !82
  %5 = trunc nuw i8 %4 to i1
  br i1 %5, label %6, label %8

6:                                                ; preds = %2
  %7 = getelementptr inbounds nuw i8, ptr %0, i64 1448
  tail call void @_ZN3zmq11io_object_t12cancel_timerEi(ptr noundef nonnull align 8 dereferenceable(16) %7, i32 noundef 1)
  store i8 0, ptr %3, align 1, !tbaa !74
  br label %8

8:                                                ; preds = %6, %2
  %9 = getelementptr inbounds nuw i8, ptr %0, i64 1480
  %10 = load ptr, ptr %9, align 8, !tbaa !68
  %.not = icmp eq ptr %10, null
  br i1 %.not, label %13, label %11

11:                                               ; preds = %8
  %12 = getelementptr inbounds nuw i8, ptr %0, i64 1448
  tail call void @_ZN3zmq11io_object_t5rm_fdEPv(ptr noundef nonnull align 8 dereferenceable(16) %12, ptr noundef nonnull %10)
  store ptr null, ptr %9, align 8, !tbaa !68
  br label %13

13:                                               ; preds = %11, %8
  %14 = getelementptr inbounds nuw i8, ptr %0, i64 1472
  %15 = load i32, ptr %14, align 8, !tbaa !67
  %.not1 = icmp eq i32 %15, -1
  br i1 %.not1, label %17, label %16

16:                                               ; preds = %13
  tail call void @_ZN3zmq23stream_connecter_base_t5closeEv(ptr noundef nonnull align 8 dereferenceable(1544) %0)
  br label %17

17:                                               ; preds = %16, %13
  tail call void @_ZN3zmq5own_t12process_termEi(ptr noundef nonnull align 8 dereferenceable(1444) %0, i32 noundef %1)
  ret void
}